ccopy_reg
_reconstructor
p1
(cspynnaker8.utilities.spynnaker8_neo_block
SpynnakerNeoBlock
p2
c__builtin__
object
p3
NtRp4
(dp5
S'recordingchannelgroups'
p6
(lp7
sS'index'
p8
NsS'description'
p9
VPopulation "pop_1"Local cells : 20\u000a    Cell type   : \u000a    ID range    : 42-61\u000a    First cell on this node:\u000a      ID: 42\u000a      
p10
sS'file_datetime'
p11
NsS'file_origin'
p12
NsS'_segments'
p13
(lp14
g1
(cspynnaker8.utilities.spynnaker8_neo_segment
SpynnakerNeoSegment
p15
g3
NtRp16
(dp17
g8
NsS'analogsignals'
p18
(lp19
sS'spikes'
p20
(lp21
sg9
VPopulation "pop_1"Local cells : 20\u000a    Cell type   : \u000a    ID range    : 42-61\u000a    First cell on this node:\u000a      ID: 42\u000a      
p22
sg11
NsS'eventarrays'
p23
(lp24
sg12
NsS'_analog_signal_arrays'
p25
(lp26
sS'epocharrays'
p27
(lp28
sS'events'
p29
(lp30
sS'epochs'
p31
(lp32
sS'_spike_trains'
p33
(lp34
cneo.core.spiketrain
_new_spiketrain
p35
(cneo.core.spiketrain
SpikeTrain
p36
cnumpy.core.multiarray
_reconstruct
p37
(cnumpy
ndarray
p38
(I0
tS'b'
tRp39
(I1
(I1
tcnumpy
dtype
p40
(S'f8'
I0
I1
tRp41
(I3
S'<'
NNNI-1
I-1
I0
tbI00
S'\x00\x00\x00\x00\x00\x00\x0c@'
tbcquantities.quantity
_reconstruct_quantity
p42
(cquantities.quantity
Quantity
p43
g38
(I0
tp44
S'b'
tRp45
(I1
(tg41
I00
S'\x00\x00\x00\x00\x00@\x7f@'
g1
(cquantities.dimensionality
Dimensionality
p46
c__builtin__
dict
p47
(dp48
cquantities.unitquantity
UnitTime
p49
(S'millisecond'
p50
g42
(g43
g38
g44
S'b'
tRp51
(I1
(tg41
I00
S'\xfc\xa9\xf1\xd2MbP?'
g1
(g46
g47
(dp52
g49
(S'second'
p53
NS's'
N(lp54
S'sec'
p55
aS'seconds'
p56
aNtRp57
(I1
(I3
I0
tp58
tbI1
stRp59
tbS'ms'
p60
N(lp61
S'milliseconds'
p62
aNtRp63
(I1
(I3
I1
tp64
tbI1
stRp65
tbg42
(g43
g38
g44
S'b'
tRp66
(I1
(tg41
I00
S'\x00\x00\x00\x00\x00\x00\xf0?'
g1
(g46
g47
(dp67
g63
I1
stRp68
tbg41
I01
g42
(g43
g38
g44
S'b'
tRp69
(I1
(tg41
I00
S'\x00\x00\x00\x00\x00\x00\xf0?'
g1
(g46
g47
(dp70
cquantities.unitquantity
UnitQuantity
p71
(S'hertz'
p72
g42
(g43
g38
g44
S'b'
tRp73
(I1
(tg41
I00
S'\x00\x00\x00\x00\x00\x00\xf0?'
g1
(g46
g47
(dp74
g57
I-1
stRp75
tbS'Hz'
p76
N(lp77
NtRp78
(I1
(I90
I142
tp79
tbI1
stRp80
tbg42
(g43
g38
g44
S'b'
tRp81
(I1
(tg41
I00
S'\x00\x00\x00\x00\x00\x00\x00\x00'
g1
(g46
g47
(dp82
g63
I1
stRp83
tbNNNNN(dp84
S'source_id'
p85
I42
sS'source_population'
p86
S'pop_1'
p87
sS'source_index'
p88
I0
stRp89
ag35
(g36
g37
(g38
(I0
tS'b'
tRp90
(I1
(I1
tg41
I00
S'\xcd\xcc\xcc\xcc\xcc\xcc\x1e@'
tbg42
(g43
g38
g44
S'b'
tRp91
(I1
(tg41
I00
S'\x00\x00\x00\x00\x00@\x7f@'
g1
(g46
g47
(dp92
g63
I1
stRp93
tbg42
(g43
g38
g44
S'b'
tRp94
(I1
(tg41
I00
S'\x00\x00\x00\x00\x00\x00\xf0?'
g1
(g46
g47
(dp95
g63
I1
stRp96
tbg41
I01
g69
g42
(g43
g38
g44
S'b'
tRp97
(I1
(tg41
I00
S'\x00\x00\x00\x00\x00\x00\x00\x00'
g1
(g46
g47
(dp98
g63
I1
stRp99
tbNNNNN(dp100
g85
I43
sg86
g87
sg88
I1
stRp101
ag35
(g36
g37
(g38
(I0
tS'b'
tRp102
(I1
(I1
tg41
I00
S"\xcd\xcc\xcc\xcc\xcc\xcc'@"
tbg42
(g43
g38
g44
S'b'
tRp103
(I1
(tg41
I00
S'\x00\x00\x00\x00\x00@\x7f@'
g1
(g46
g47
(dp104
g63
I1
stRp105
tbg42
(g43
g38
g44
S'b'
tRp106
(I1
(tg41
I00
S'\x00\x00\x00\x00\x00\x00\xf0?'
g1
(g46
g47
(dp107
g63
I1
stRp108
tbg41
I01
g69
g42
(g43
g38
g44
S'b'
tRp109
(I1
(tg41
I00
S'\x00\x00\x00\x00\x00\x00\x00\x00'
g1
(g46
g47
(dp110
g63
I1
stRp111
tbNNNNN(dp112
g85
I44
sg86
g87
sg88
I2
stRp113
ag35
(g36
g37
(g38
(I0
tS'b'
tRp114
(I1
(I1
tg41
I00
S'\x9a\x99\x99\x99\x99\x190@'
tbg42
(g43
g38
g44
S'b'
tRp115
(I1
(tg41
I00
S'\x00\x00\x00\x00\x00@\x7f@'
g1
(g46
g47
(dp116
g63
I1
stRp117
tbg42
(g43
g38
g44
S'b'
tRp118
(I1
(tg41
I00
S'\x00\x00\x00\x00\x00\x00\xf0?'
g1
(g46
g47
(dp119
g63
I1
stRp120
tbg41
I01
g69
g42
(g43
g38
g44
S'b'
tRp121
(I1
(tg41
I00
S'\x00\x00\x00\x00\x00\x00\x00\x00'
g1
(g46
g47
(dp122
g63
I1
stRp123
tbNNNNN(dp124
g85
I45
sg86
g87
sg88
I3
stRp125
ag35
(g36
g37
(g38
(I0
tS'b'
tRp126
(I1
(I1
tg41
I00
S'\xcd\xcc\xcc\xcc\xccL4@'
tbg42
(g43
g38
g44
S'b'
tRp127
(I1
(tg41
I00
S'\x00\x00\x00\x00\x00@\x7f@'
g1
(g46
g47
(dp128
g63
I1
stRp129
tbg42
(g43
g38
g44
S'b'
tRp130
(I1
(tg41
I00
S'\x00\x00\x00\x00\x00\x00\xf0?'
g1
(g46
g47
(dp131
g63
I1
stRp132
tbg41
I01
g69
g42
(g43
g38
g44
S'b'
tRp133
(I1
(tg41
I00
S'\x00\x00\x00\x00\x00\x00\x00\x00'
g1
(g46
g47
(dp134
g63
I1
stRp135
tbNNNNN(dp136
g85
I46
sg86
g87
sg88
I4
stRp137
ag35
(g36
g37
(g38
(I0
tS'b'
tRp138
(I1
(I1
tg41
I00
S'\x00\x00\x00\x00\x00\x808@'
tbg42
(g43
g38
g44
S'b'
tRp139
(I1
(tg41
I00
S'\x00\x00\x00\x00\x00@\x7f@'
g1
(g46
g47
(dp140
g63
I1
stRp141
tbg42
(g43
g38
g44
S'b'
tRp142
(I1
(tg41
I00
S'\x00\x00\x00\x00\x00\x00\xf0?'
g1
(g46
g47
(dp143
g63
I1
stRp144
tbg41
I01
g69
g42
(g43
g38
g44
S'b'
tRp145
(I1
(tg41
I00
S'\x00\x00\x00\x00\x00\x00\x00\x00'
g1
(g46
g47
(dp146
g63
I1
stRp147
tbNNNNN(dp148
g85
I47
sg86
g87
sg88
I5
stRp149
ag35
(g36
g37
(g38
(I0
tS'b'
tRp150
(I1
(I1
tg41
I00
S'43333\xb3<@'
tbg42
(g43
g38
g44
S'b'
tRp151
(I1
(tg41
I00
S'\x00\x00\x00\x00\x00@\x7f@'
g1
(g46
g47
(dp152
g63
I1
stRp153
tbg42
(g43
g38
g44
S'b'
tRp154
(I1
(tg41
I00
S'\x00\x00\x00\x00\x00\x00\xf0?'
g1
(g46
g47
(dp155
g63
I1
stRp156
tbg41
I01
g69
g42
(g43
g38
g44
S'b'
tRp157
(I1
(tg41
I00
S'\x00\x00\x00\x00\x00\x00\x00\x00'
g1
(g46
g47
(dp158
g63
I1
stRp159
tbNNNNN(dp160
g85
I48
sg86
g87
sg88
I6
stRp161
ag35
(g36
g37
(g38
(I0
tS'b'
tRp162
(I1
(I1
tg41
I00
S'33333s@@'
tbg42
(g43
g38
g44
S'b'
tRp163
(I1
(tg41
I00
S'\x00\x00\x00\x00\x00@\x7f@'
g1
(g46
g47
(dp164
g63
I1
stRp165
tbg42
(g43
g38
g44
S'b'
tRp166
(I1
(tg41
I00
S'\x00\x00\x00\x00\x00\x00\xf0?'
g1
(g46
g47
(dp167
g63
I1
stRp168
tbg41
I01
g69
g42
(g43
g38
g44
S'b'
tRp169
(I1
(tg41
I00
S'\x00\x00\x00\x00\x00\x00\x00\x00'
g1
(g46
g47
(dp170
g63
I1
stRp171
tbNNNNN(dp172
g85
I49
sg86
g87
sg88
I7
stRp173
ag35
(g36
g37
(g38
(I0
tS'b'
tRp174
(I1
(I1
tg41
I00
S'\xcd\xcc\xcc\xcc\xcc\x8cB@'
tbg42
(g43
g38
g44
S'b'
tRp175
(I1
(tg41
I00
S'\x00\x00\x00\x00\x00@\x7f@'
g1
(g46
g47
(dp176
g63
I1
stRp177
tbg42
(g43
g38
g44
S'b'
tRp178
(I1
(tg41
I00
S'\x00\x00\x00\x00\x00\x00\xf0?'
g1
(g46
g47
(dp179
g63
I1
stRp180
tbg41
I01
g69
g42
(g43
g38
g44
S'b'
tRp181
(I1
(tg41
I00
S'\x00\x00\x00\x00\x00\x00\x00\x00'
g1
(g46
g47
(dp182
g63
I1
stRp183
tbNNNNN(dp184
g85
I50
sg86
g87
sg88
I8
stRp185
ag35
(g36
g37
(g38
(I0
tS'b'
tRp186
(I1
(I1
tg41
I00
S'gffff\xa6D@'
tbg42
(g43
g38
g44
S'b'
tRp187
(I1
(tg41
I00
S'\x00\x00\x00\x00\x00@\x7f@'
g1
(g46
g47
(dp188
g63
I1
stRp189
tbg42
(g43
g38
g44
S'b'
tRp190
(I1
(tg41
I00
S'\x00\x00\x00\x00\x00\x00\xf0?'
g1
(g46
g47
(dp191
g63
I1
stRp192
tbg41
I01
g69
g42
(g43
g38
g44
S'b'
tRp193
(I1
(tg41
I00
S'\x00\x00\x00\x00\x00\x00\x00\x00'
g1
(g46
g47
(dp194
g63
I1
stRp195
tbNNNNN(dp196
g85
I51
sg86
g87
sg88
I9
stRp197
ag35
(g36
g37
(g38
(I0
tS'b'
tRp198
(I1
(I1
tg41
I00
S'\x00\x00\x00\x00\x00\xc0F@'
tbg42
(g43
g38
g44
S'b'
tRp199
(I1
(tg41
I00
S'\x00\x00\x00\x00\x00@\x7f@'
g1
(g46
g47
(dp200
g63
I1
stRp201
tbg42
(g43
g38
g44
S'b'
tRp202
(I1
(tg41
I00
S'\x00\x00\x00\x00\x00\x00\xf0?'
g1
(g46
g47
(dp203
g63
I1
stRp204
tbg41
I01
g69
g42
(g43
g38
g44
S'b'
tRp205
(I1
(tg41
I00
S'\x00\x00\x00\x00\x00\x00\x00\x00'
g1
(g46
g47
(dp206
g63
I1
stRp207
tbNNNNN(dp208
g85
I52
sg86
g87
sg88
I10
stRp209
ag35
(g36
g37
(g38
(I0
tS'b'
tRp210
(I1
(I1
tg41
I00
S'\x9a\x99\x99\x99\x99\xd9H@'
tbg42
(g43
g38
g44
S'b'
tRp211
(I1
(tg41
I00
S'\x00\x00\x00\x00\x00@\x7f@'
g1
(g46
g47
(dp212
g63
I1
stRp213
tbg42
(g43
g38
g44
S'b'
tRp214
(I1
(tg41
I00
S'\x00\x00\x00\x00\x00\x00\xf0?'
g1
(g46
g47
(dp215
g63
I1
stRp216
tbg41
I01
g69
g42
(g43
g38
g44
S'b'
tRp217
(I1
(tg41
I00
S'\x00\x00\x00\x00\x00\x00\x00\x00'
g1
(g46
g47
(dp218
g63
I1
stRp219
tbNNNNN(dp220
g85
I53
sg86
g87
sg88
I11
stRp221
ag35
(g36
g37
(g38
(I0
tS'b'
tRp222
(I1
(I0
tg41
I00
S''
tbg42
(g43
g38
g44
S'b'
tRp223
(I1
(tg41
I00
S'\x00\x00\x00\x00\x00@\x7f@'
g1
(g46
g47
(dp224
g63
I1
stRp225
tbg42
(g43
g38
g44
S'b'
tRp226
(I1
(tg41
I00
S'\x00\x00\x00\x00\x00\x00\xf0?'
g1
(g46
g47
(dp227
g63
I1
stRp228
tbg41
I01
g69
g42
(g43
g38
g44
S'b'
tRp229
(I1
(tg41
I00
S'\x00\x00\x00\x00\x00\x00\x00\x00'
g1
(g46
g47
(dp230
g63
I1
stRp231
tbNNNNN(dp232
g85
I54
sg86
g87
sg88
I12
stRp233
ag35
(g36
g37
(g38
(I0
tS'b'
tRp234
(I1
(I0
tg41
I00
S''
tbg42
(g43
g38
g44
S'b'
tRp235
(I1
(tg41
I00
S'\x00\x00\x00\x00\x00@\x7f@'
g1
(g46
g47
(dp236
g63
I1
stRp237
tbg42
(g43
g38
g44
S'b'
tRp238
(I1
(tg41
I00
S'\x00\x00\x00\x00\x00\x00\xf0?'
g1
(g46
g47
(dp239
g63
I1
stRp240
tbg41
I01
g69
g42
(g43
g38
g44
S'b'
tRp241
(I1
(tg41
I00
S'\x00\x00\x00\x00\x00\x00\x00\x00'
g1
(g46
g47
(dp242
g63
I1
stRp243
tbNNNNN(dp244
g85
I55
sg86
g87
sg88
I13
stRp245
ag35
(g36
g37
(g38
(I0
tS'b'
tRp246
(I1
(I0
tg41
I00
S''
tbg42
(g43
g38
g44
S'b'
tRp247
(I1
(tg41
I00
S'\x00\x00\x00\x00\x00@\x7f@'
g1
(g46
g47
(dp248
g63
I1
stRp249
tbg42
(g43
g38
g44
S'b'
tRp250
(I1
(tg41
I00
S'\x00\x00\x00\x00\x00\x00\xf0?'
g1
(g46
g47
(dp251
g63
I1
stRp252
tbg41
I01
g69
g42
(g43
g38
g44
S'b'
tRp253
(I1
(tg41
I00
S'\x00\x00\x00\x00\x00\x00\x00\x00'
g1
(g46
g47
(dp254
g63
I1
stRp255
tbNNNNN(dp256
g85
I56
sg86
g87
sg88
I14
stRp257
ag35
(g36
g37
(g38
(I0
tS'b'
tRp258
(I1
(I0
tg41
I00
S''
tbg42
(g43
g38
g44
S'b'
tRp259
(I1
(tg41
I00
S'\x00\x00\x00\x00\x00@\x7f@'
g1
(g46
g47
(dp260
g63
I1
stRp261
tbg42
(g43
g38
g44
S'b'
tRp262
(I1
(tg41
I00
S'\x00\x00\x00\x00\x00\x00\xf0?'
g1
(g46
g47
(dp263
g63
I1
stRp264
tbg41
I01
g69
g42
(g43
g38
g44
S'b'
tRp265
(I1
(tg41
I00
S'\x00\x00\x00\x00\x00\x00\x00\x00'
g1
(g46
g47
(dp266
g63
I1
stRp267
tbNNNNN(dp268
g85
I57
sg86
g87
sg88
I15
stRp269
ag35
(g36
g37
(g38
(I0
tS'b'
tRp270
(I1
(I0
tg41
I00
S''
tbg42
(g43
g38
g44
S'b'
tRp271
(I1
(tg41
I00
S'\x00\x00\x00\x00\x00@\x7f@'
g1
(g46
g47
(dp272
g63
I1
stRp273
tbg42
(g43
g38
g44
S'b'
tRp274
(I1
(tg41
I00
S'\x00\x00\x00\x00\x00\x00\xf0?'
g1
(g46
g47
(dp275
g63
I1
stRp276
tbg41
I01
g69
g42
(g43
g38
g44
S'b'
tRp277
(I1
(tg41
I00
S'\x00\x00\x00\x00\x00\x00\x00\x00'
g1
(g46
g47
(dp278
g63
I1
stRp279
tbNNNNN(dp280
g85
I58
sg86
g87
sg88
I16
stRp281
ag35
(g36
g37
(g38
(I0
tS'b'
tRp282
(I1
(I0
tg41
I00
S''
tbg42
(g43
g38
g44
S'b'
tRp283
(I1
(tg41
I00
S'\x00\x00\x00\x00\x00@\x7f@'
g1
(g46
g47
(dp284
g63
I1
stRp285
tbg42
(g43
g38
g44
S'b'
tRp286
(I1
(tg41
I00
S'\x00\x00\x00\x00\x00\x00\xf0?'
g1
(g46
g47
(dp287
g63
I1
stRp288
tbg41
I01
g69
g42
(g43
g38
g44
S'b'
tRp289
(I1
(tg41
I00
S'\x00\x00\x00\x00\x00\x00\x00\x00'
g1
(g46
g47
(dp290
g63
I1
stRp291
tbNNNNN(dp292
g85
I59
sg86
g87
sg88
I17
stRp293
ag35
(g36
g37
(g38
(I0
tS'b'
tRp294
(I1
(I0
tg41
I00
S''
tbg42
(g43
g38
g44
S'b'
tRp295
(I1
(tg41
I00
S'\x00\x00\x00\x00\x00@\x7f@'
g1
(g46
g47
(dp296
g63
I1
stRp297
tbg42
(g43
g38
g44
S'b'
tRp298
(I1
(tg41
I00
S'\x00\x00\x00\x00\x00\x00\xf0?'
g1
(g46
g47
(dp299
g63
I1
stRp300
tbg41
I01
g69
g42
(g43
g38
g44
S'b'
tRp301
(I1
(tg41
I00
S'\x00\x00\x00\x00\x00\x00\x00\x00'
g1
(g46
g47
(dp302
g63
I1
stRp303
tbNNNNN(dp304
g85
I60
sg86
g87
sg88
I18
stRp305
ag35
(g36
g37
(g38
(I0
tS'b'
tRp306
(I1
(I0
tg41
I00
S''
tbg42
(g43
g38
g44
S'b'
tRp307
(I1
(tg41
I00
S'\x00\x00\x00\x00\x00@\x7f@'
g1
(g46
g47
(dp308
g63
I1
stRp309
tbg42
(g43
g38
g44
S'b'
tRp310
(I1
(tg41
I00
S'\x00\x00\x00\x00\x00\x00\xf0?'
g1
(g46
g47
(dp311
g63
I1
stRp312
tbg41
I01
g69
g42
(g43
g38
g44
S'b'
tRp313
(I1
(tg41
I00
S'\x00\x00\x00\x00\x00\x00\x00\x00'
g1
(g46
g47
(dp314
g63
I1
stRp315
tbNNNNN(dp316
g85
I61
sg86
g87
sg88
I19
stRp317
asS'rec_datetime'
p318
cdatetime
datetime
p319
(S'\x07\xe1\x06\x05\x0b7!\x0c\x94:'
tRp320
sS'irregularlysampledsignals'
p321
(lp322
sS'annotations'
p323
(dp324
sS'block'
p325
NsS'name'
p326
S'segment-1'
p327
sbasg323
(dp328
S'size'
p329
I20
sS'first_id'
p330
I42
sS'simulator'
p331
S'SpiNNaker_under_version(1!4.0.0a5-Riptalon)'
p332
sS'first_index'
p333
I0
sS'last_index'
p334
I20
sS'mpi_processes'
p335
I1
sS'dt'
p336
F100
sS'label'
p337
g87
sS'last_id'
p338
I61
ssg318
g320
sg326
g87
sb.